; Function Attrs: mustprogress uwtable
define noundef zeroext i1 @_ZN6duckdb19BatchedBufferedData16ShouldBlockBatchEm(ptr noundef nonnull align 8 dereferenceable(304) %0, i64 noundef %1) local_unnamed_addr #0 align 2 personality ptr @__gxx_personality_v0 {
  %3 = getelementptr inbounds nuw i8, ptr %0, i64 40
  %4 = tail call noundef i32 @pthread_mutex_lock(ptr noundef nonnull align 8 dereferenceable(40) %3) #24
  %.not.i.i = icmp eq i32 %4, 0
  br i1 %.not.i.i, label %_ZNSt10lock_guardISt5mutexEC2ERS0_.exit, label %5

5:                                                ; preds = %2
  tail call void @_ZSt20__throw_system_errori(i32 noundef %4) #25
  unreachable

_ZNSt10lock_guardISt5mutexEC2ERS0_.exit:          ; preds = %2
  %6 = getelementptr inbounds nuw i8, ptr %0, i64 288
  %7 = load i64, ptr %6, align 8, !tbaa !144
  %8 = icmp eq i64 %7, %1
  %. = select i1 %8, i64 232, i64 136
  %.7 = select i1 %8, i64 224, i64 128
  %9 = getelementptr inbounds nuw i8, ptr %0, i64 %.
  %10 = load atomic i64, ptr %9 seq_cst, align 8
  %11 = getelementptr inbounds nuw i8, ptr %0, i64 %.7
  %12 = load i64, ptr %11, align 8, !tbaa !99
  %13 = icmp uge i64 %10, %12
  %14 = tail call noundef i32 @pthread_mutex_unlock(ptr noundef nonnull align 8 dereferenceable(40) %3) #24
  ret i1 %13
}